target datalayout = "e-m:e-p270:32:32-p271:32:32-p272:64:64-i64:64-i128:128-f80:128-n8:16:32:64-S128"
target triple = "x86_64-pc-linux-gnu"

%struct.async_ctx_st = type { %struct.async_fibre_st, ptr, i32 }
%struct.async_fibre_st = type { %struct.ucontext_t, [1 x %struct.__jmp_buf_tag], i32 }
%struct.ucontext_t = type { i64, ptr, %struct.stack_t, %struct.mcontext_t, %struct.__sigset_t, %struct._libc_fpstate, [4 x i64] }
%struct.stack_t = type { ptr, i32, i64 }
%struct.mcontext_t = type { [23 x i64], ptr, [8 x i64] }
%struct.__sigset_t = type { [16 x i64] }
%struct._libc_fpstate = type { i16, i16, i16, i16, i64, i64, i32, i32, [8 x %struct._libc_fpxreg], [16 x %struct._libc_xmmreg], [24 x i32] }
%struct._libc_fpxreg = type { [4 x i16], i16, [3 x i16] }
%struct._libc_xmmreg = type { [4 x i32] }
%struct.__jmp_buf_tag = type { [8 x i64], i32, %struct.__sigset_t }

@ctxkey = internal global i32 0, align 4

; Function Attrs: nounwind uwtable
define ptr @async_get_ctx() #0 {
  %1 = call ptr @CRYPTO_THREAD_get_local(ptr noundef @ctxkey)
  ret ptr %1
}

; Function Attrs: nounwind uwtable
define void @ASYNC_unblock_pause() #0 {
  %1 = alloca ptr, align 8
  %2 = alloca i32, align 4
  call void @llvm.lifetime.start.p0(i64 8, ptr %1) #8
  %3 = call i32 @OPENSSL_init_crypto(i64 noundef 256, ptr noundef null)
  %4 = icmp ne i32 %3, 0
  br i1 %4, label %6, label %5

5:                                                ; preds = %0
  store i32 1, ptr %2, align 4
  br label %27

6:                                                ; preds = %0
  %7 = call ptr @async_get_ctx()
  store ptr %7, ptr %1, align 8, !tbaa !3
  %8 = load ptr, ptr %1, align 8, !tbaa !3
  %9 = icmp eq ptr %8, null
  br i1 %9, label %15, label %10

10:                                               ; preds = %6
  %11 = load ptr, ptr %1, align 8, !tbaa !3
  %12 = getelementptr inbounds nuw %struct.async_ctx_st, ptr %11, i32 0, i32 1
  %13 = load ptr, ptr %12, align 8, !tbaa !8
  %14 = icmp eq ptr %13, null
  br i1 %14, label %15, label %16

15:                                               ; preds = %10, %6
  store i32 1, ptr %2, align 4
  br label %27

16:                                               ; preds = %10
  %17 = load ptr, ptr %1, align 8, !tbaa !3
  %18 = getelementptr inbounds nuw %struct.async_ctx_st, ptr %17, i32 0, i32 2
  %19 = load i32, ptr %18, align 8, !tbaa !44
  %20 = icmp ugt i32 %19, 0
  br i1 %20, label %21, label %26

21:                                               ; preds = %16
  %22 = load ptr, ptr %1, align 8, !tbaa !3
  %23 = getelementptr inbounds nuw %struct.async_ctx_st, ptr %22, i32 0, i32 2
  %24 = load i32, ptr %23, align 8, !tbaa !44
  %25 = add i32 %24, -1
  store i32 %25, ptr %23, align 8, !tbaa !44
  br label %26

26:                                               ; preds = %21, %16
  store i32 0, ptr %2, align 4
  br label %27

27:                                               ; preds = %26, %15, %5
  call void @llvm.lifetime.end.p0(i64 8, ptr %1) #8
  %28 = load i32, ptr %2, align 4
  switch i32 %28, label %30 [
    i32 0, label %29
    i32 1, label %29
  ]

29:                                               ; preds = %27, %27
  ret void

30:                                               ; preds = %27
  unreachable
}