; Function Attrs: nounwind uwtable
define void @ASYNC_unblock_pause() local_unnamed_addr #0 {
  %1 = tail call i32 @OPENSSL_init_crypto(i64 noundef 256, ptr noundef null) #8
  %.not = icmp eq i32 %1, 0
  br i1 %.not, label %14, label %2

2:                                                ; preds = %0
  %3 = tail call ptr @CRYPTO_THREAD_get_local(ptr noundef nonnull @ctxkey) #8
  %4 = icmp eq ptr %3, null
  br i1 %4, label %14, label %5

5:                                                ; preds = %2
  %6 = getelementptr inbounds nuw i8, ptr %3, i64 1176
  %7 = load ptr, ptr %6, align 8, !tbaa !3
  %8 = icmp eq ptr %7, null
  br i1 %8, label %14, label %9

9:                                                ; preds = %5
  %10 = getelementptr inbounds nuw i8, ptr %3, i64 1184
  %11 = load i32, ptr %10, align 8, !tbaa !28
  %.not5 = icmp eq i32 %11, 0
  br i1 %.not5, label %14, label %12

12:                                               ; preds = %9
  %13 = add i32 %11, -1
  store i32 %13, ptr %10, align 8, !tbaa !28
  br label %14

14:                                               ; preds = %9, %12, %2, %5, %0
  ret void
}